target datalayout = "e-m:e-p270:32:32-p271:32:32-p272:64:64-i64:64-i128:128-f80:128-n8:16:32:64-S128"
target triple = "x86_64-pc-linux-gnu"

%struct._lv_obj_t = type { ptr, ptr, ptr, ptr, ptr, %struct.lv_area_t, i32, i16, i16 }
%struct.lv_area_t = type { i32, i32, i32, i32 }
%struct._lv_obj_spec_attr_t = type { ptr, ptr, %struct.lv_event_list_t, %struct.lv_point_t, i32, i32, i16, i16 }
%struct.lv_event_list_t = type { %struct._lv_array_t, i8 }
%struct._lv_array_t = type { ptr, i32, i32, i32, i8 }
%struct.lv_point_t = type { i32, i32 }
%struct._lv_anim_t = type { ptr, ptr, ptr, ptr, ptr, ptr, ptr, ptr, ptr, i32, i32, i32, i32, i32, i32, i32, i32, i32, %union._lv_anim_path_para_t, i32, i8 }
%union._lv_anim_path_para_t = type { %struct.lv_anim_bezier3_para_t }
%struct.lv_anim_bezier3_para_t = type { i16, i16, i16, i16 }

; Function Attrs: nounwind uwtable
define i32 @lv_obj_scroll_by_raw(ptr noundef %0, i32 noundef %1, i32 noundef %2) #0 {
  %4 = alloca i32, align 4
  %5 = alloca ptr, align 8
  %6 = alloca i32, align 4
  %7 = alloca i32, align 4
  %8 = alloca i32, align 4
  %9 = alloca i32, align 4
  store ptr %0, ptr %5, align 8, !tbaa !3
  store i32 %1, ptr %6, align 4, !tbaa !7
  store i32 %2, ptr %7, align 4, !tbaa !7
  %10 = load i32, ptr %6, align 4, !tbaa !7
  %11 = icmp eq i32 %10, 0
  br i1 %11, label %12, label %16

12:                                               ; preds = %3
  %13 = load i32, ptr %7, align 4, !tbaa !7
  %14 = icmp eq i32 %13, 0
  br i1 %14, label %15, label %16

15:                                               ; preds = %12
  store i32 1, ptr %4, align 4
  br label %46

16:                                               ; preds = %12, %3
  %17 = load ptr, ptr %5, align 8, !tbaa !3
  call void @lv_obj_allocate_spec_attr(ptr noundef %17)
  %18 = load i32, ptr %6, align 4, !tbaa !7
  %19 = load ptr, ptr %5, align 8, !tbaa !3
  %20 = getelementptr inbounds nuw %struct._lv_obj_t, ptr %19, i32 0, i32 2
  %21 = load ptr, ptr %20, align 8, !tbaa !9
  %22 = getelementptr inbounds nuw %struct._lv_obj_spec_attr_t, ptr %21, i32 0, i32 3
  %23 = getelementptr inbounds nuw %struct.lv_point_t, ptr %22, i32 0, i32 0
  %24 = load i32, ptr %23, align 8, !tbaa !13
  %25 = add nsw i32 %24, %18
  store i32 %25, ptr %23, align 8, !tbaa !13
  %26 = load i32, ptr %7, align 4, !tbaa !7
  %27 = load ptr, ptr %5, align 8, !tbaa !3
  %28 = getelementptr inbounds nuw %struct._lv_obj_t, ptr %27, i32 0, i32 2
  %29 = load ptr, ptr %28, align 8, !tbaa !9
  %30 = getelementptr inbounds nuw %struct._lv_obj_spec_attr_t, ptr %29, i32 0, i32 3
  %31 = getelementptr inbounds nuw %struct.lv_point_t, ptr %30, i32 0, i32 1
  %32 = load i32, ptr %31, align 4, !tbaa !19
  %33 = add nsw i32 %32, %26
  store i32 %33, ptr %31, align 4, !tbaa !19
  %34 = load ptr, ptr %5, align 8, !tbaa !3
  %35 = load i32, ptr %6, align 4, !tbaa !7
  %36 = load i32, ptr %7, align 4, !tbaa !7
  call void @lv_obj_move_children_by(ptr noundef %34, i32 noundef %35, i32 noundef %36, i1 noundef zeroext true)
  call void @llvm.lifetime.start.p0(i64 4, ptr %8) #5
  %37 = load ptr, ptr %5, align 8, !tbaa !3
  %38 = call i32 @lv_obj_send_event(ptr noundef %37, i32 noundef 15, ptr noundef null)
  store i32 %38, ptr %8, align 4, !tbaa !7
  %39 = load i32, ptr %8, align 4, !tbaa !7
  %40 = icmp ne i32 %39, 1
  br i1 %40, label %41, label %43

41:                                               ; preds = %16
  %42 = load i32, ptr %8, align 4, !tbaa !7
  store i32 %42, ptr %4, align 4
  store i32 1, ptr %9, align 4
  br label %45

43:                                               ; preds = %16
  %44 = load ptr, ptr %5, align 8, !tbaa !3
  call void @lv_obj_invalidate(ptr noundef %44)
  store i32 1, ptr %4, align 4
  store i32 1, ptr %9, align 4
  br label %45

45:                                               ; preds = %43, %41
  call void @llvm.lifetime.end.p0(i64 4, ptr %8) #5
  br label %46

46:                                               ; preds = %45, %15
  %47 = load i32, ptr %4, align 4
  ret i32 %47
}

; Function Attrs: nounwind uwtable
define i32 @lv_obj_get_scroll_y(ptr noundef %0) #0 {
  %2 = alloca i32, align 4
  %3 = alloca ptr, align 8
  store ptr %0, ptr %3, align 8, !tbaa !3
  %4 = load ptr, ptr %3, align 8, !tbaa !3
  %5 = getelementptr inbounds nuw %struct._lv_obj_t, ptr %4, i32 0, i32 2
  %6 = load ptr, ptr %5, align 8, !tbaa !9
  %7 = icmp eq ptr %6, null
  br i1 %7, label %8, label %9

8:                                                ; preds = %1
  store i32 0, ptr %2, align 4
  br label %17

9:                                                ; preds = %1
  %10 = load ptr, ptr %3, align 8, !tbaa !3
  %11 = getelementptr inbounds nuw %struct._lv_obj_t, ptr %10, i32 0, i32 2
  %12 = load ptr, ptr %11, align 8, !tbaa !9
  %13 = getelementptr inbounds nuw %struct._lv_obj_spec_attr_t, ptr %12, i32 0, i32 3
  %14 = getelementptr inbounds nuw %struct.lv_point_t, ptr %13, i32 0, i32 1
  %15 = load i32, ptr %14, align 4, !tbaa !19
  %16 = sub nsw i32 0, %15
  store i32 %16, ptr %2, align 4
  br label %17

17:                                               ; preds = %9, %8
  %18 = load i32, ptr %2, align 4
  ret i32 %18
}

; Function Attrs: nounwind uwtable
define i32 @lv_obj_get_scroll_x(ptr noundef %0) #0 {
  %2 = alloca i32, align 4
  %3 = alloca ptr, align 8
  store ptr %0, ptr %3, align 8, !tbaa !3
  %4 = load ptr, ptr %3, align 8, !tbaa !3
  %5 = getelementptr inbounds nuw %struct._lv_obj_t, ptr %4, i32 0, i32 2
  %6 = load ptr, ptr %5, align 8, !tbaa !9
  %7 = icmp eq ptr %6, null
  br i1 %7, label %8, label %9

8:                                                ; preds = %1
  store i32 0, ptr %2, align 4
  br label %17

9:                                                ; preds = %1
  %10 = load ptr, ptr %3, align 8, !tbaa !3
  %11 = getelementptr inbounds nuw %struct._lv_obj_t, ptr %10, i32 0, i32 2
  %12 = load ptr, ptr %11, align 8, !tbaa !9
  %13 = getelementptr inbounds nuw %struct._lv_obj_spec_attr_t, ptr %12, i32 0, i32 3
  %14 = getelementptr inbounds nuw %struct.lv_point_t, ptr %13, i32 0, i32 0
  %15 = load i32, ptr %14, align 8, !tbaa !13
  %16 = sub nsw i32 0, %15
  store i32 %16, ptr %2, align 4
  br label %17

17:                                               ; preds = %9, %8
  %18 = load i32, ptr %2, align 4
  ret i32 %18
}

; Function Attrs: nounwind uwtable
define void @lv_obj_scroll_by(ptr noundef %0, i32 noundef %1, i32 noundef %2, i32 noundef %3) #0 {
  %5 = alloca ptr, align 8
  %6 = alloca i32, align 4
  %7 = alloca i32, align 4
  %8 = alloca i32, align 4
  %9 = alloca ptr, align 8
  %10 = alloca %struct._lv_anim_t, align 8
  %11 = alloca i32, align 4
  %12 = alloca i32, align 4
  %13 = alloca i32, align 4
  %14 = alloca i32, align 4
  %15 = alloca i32, align 4
  %16 = alloca i32, align 4
  %17 = alloca i32, align 4
  %18 = alloca i32, align 4
  store ptr %0, ptr %5, align 8, !tbaa !3
  store i32 %1, ptr %6, align 4, !tbaa !7
  store i32 %2, ptr %7, align 4, !tbaa !7
  store i32 %3, ptr %8, align 4, !tbaa !7
  %19 = load i32, ptr %6, align 4, !tbaa !7
  %20 = icmp eq i32 %19, 0
  br i1 %20, label %21, label %25

21:                                               ; preds = %4
  %22 = load i32, ptr %7, align 4, !tbaa !7
  %23 = icmp eq i32 %22, 0
  br i1 %23, label %24, label %25

24:                                               ; preds = %21
  br label %117

25:                                               ; preds = %21, %4
  %26 = load i32, ptr %8, align 4, !tbaa !7
  %27 = icmp eq i32 %26, 1
  br i1 %27, label %28, label %89

28:                                               ; preds = %25
  call void @llvm.lifetime.start.p0(i64 8, ptr %9) #5
  %29 = load ptr, ptr %5, align 8, !tbaa !3
  %30 = call ptr @lv_obj_get_display(ptr noundef %29)
  store ptr %30, ptr %9, align 8, !tbaa !3
  call void @llvm.lifetime.start.p0(i64 128, ptr %10) #5
  call void @lv_anim_init(ptr noundef %10)
  %31 = load ptr, ptr %5, align 8, !tbaa !3
  call void @lv_anim_set_var(ptr noundef %10, ptr noundef %31)
  call void @lv_anim_set_deleted_cb(ptr noundef %10, ptr noundef @scroll_end_cb)
  %32 = load i32, ptr %6, align 4, !tbaa !7
  %33 = icmp ne i32 %32, 0
  br i1 %33, label %34, label %58

34:                                               ; preds = %28
  call void @llvm.lifetime.start.p0(i64 4, ptr %11) #5
  %35 = load ptr, ptr %9, align 8, !tbaa !3
  %36 = call i32 @lv_display_get_horizontal_resolution(ptr noundef %35)
  %37 = ashr i32 %36, 1
  %38 = call i32 @lv_anim_speed_clamped(i32 noundef %37, i32 noundef 200, i32 noundef 400)
  store i32 %38, ptr %11, align 4, !tbaa !7
  %39 = load i32, ptr %11, align 4, !tbaa !7
  call void @lv_anim_set_duration(ptr noundef %10, i32 noundef %39)
  call void @llvm.lifetime.start.p0(i64 4, ptr %12) #5
  %40 = load ptr, ptr %5, align 8, !tbaa !3
  %41 = call i32 @lv_obj_get_scroll_x(ptr noundef %40)
  store i32 %41, ptr %12, align 4, !tbaa !7
  %42 = load i32, ptr %12, align 4, !tbaa !7
  %43 = sub nsw i32 0, %42
  %44 = load i32, ptr %12, align 4, !tbaa !7
  %45 = sub nsw i32 0, %44
  %46 = load i32, ptr %6, align 4, !tbaa !7
  %47 = add nsw i32 %45, %46
  call void @lv_anim_set_values(ptr noundef %10, i32 noundef %43, i32 noundef %47)
  call void @lv_anim_set_exec_cb(ptr noundef %10, ptr noundef @scroll_x_anim)
  call void @lv_anim_set_path_cb(ptr noundef %10, ptr noundef @lv_anim_path_ease_out)
  call void @llvm.lifetime.start.p0(i64 4, ptr %13) #5
  %48 = load ptr, ptr %5, align 8, !tbaa !3
  %49 = call i32 @lv_obj_send_event(ptr noundef %48, i32 noundef 12, ptr noundef %10)
  store i32 %49, ptr %13, align 4, !tbaa !7
  %50 = load i32, ptr %13, align 4, !tbaa !7
  %51 = icmp ne i32 %50, 1
  br i1 %51, label %52, label %53

52:                                               ; preds = %34
  store i32 1, ptr %14, align 4
  br label %55

53:                                               ; preds = %34
  %54 = call ptr @lv_anim_start(ptr noundef %10)
  store i32 0, ptr %14, align 4
  br label %55

55:                                               ; preds = %53, %52
  call void @llvm.lifetime.end.p0(i64 4, ptr %13) #5
  call void @llvm.lifetime.end.p0(i64 4, ptr %12) #5
  call void @llvm.lifetime.end.p0(i64 4, ptr %11) #5
  %56 = load i32, ptr %14, align 4
  switch i32 %56, label %86 [
    i32 0, label %57
  ]

57:                                               ; preds = %55
  br label %58

58:                                               ; preds = %57, %28
  %59 = load i32, ptr %7, align 4, !tbaa !7
  %60 = icmp ne i32 %59, 0
  br i1 %60, label %61, label %85

61:                                               ; preds = %58
  call void @llvm.lifetime.start.p0(i64 4, ptr %15) #5
  %62 = load ptr, ptr %9, align 8, !tbaa !3
  %63 = call i32 @lv_display_get_vertical_resolution(ptr noundef %62)
  %64 = ashr i32 %63, 1
  %65 = call i32 @lv_anim_speed_clamped(i32 noundef %64, i32 noundef 200, i32 noundef 400)
  store i32 %65, ptr %15, align 4, !tbaa !7
  %66 = load i32, ptr %15, align 4, !tbaa !7
  call void @lv_anim_set_duration(ptr noundef %10, i32 noundef %66)
  call void @llvm.lifetime.start.p0(i64 4, ptr %16) #5
  %67 = load ptr, ptr %5, align 8, !tbaa !3
  %68 = call i32 @lv_obj_get_scroll_y(ptr noundef %67)
  store i32 %68, ptr %16, align 4, !tbaa !7
  %69 = load i32, ptr %16, align 4, !tbaa !7
  %70 = sub nsw i32 0, %69
  %71 = load i32, ptr %16, align 4, !tbaa !7
  %72 = sub nsw i32 0, %71
  %73 = load i32, ptr %7, align 4, !tbaa !7
  %74 = add nsw i32 %72, %73
  call void @lv_anim_set_values(ptr noundef %10, i32 noundef %70, i32 noundef %74)
  call void @lv_anim_set_exec_cb(ptr noundef %10, ptr noundef @scroll_y_anim)
  call void @lv_anim_set_path_cb(ptr noundef %10, ptr noundef @lv_anim_path_ease_out)
  call void @llvm.lifetime.start.p0(i64 4, ptr %17) #5
  %75 = load ptr, ptr %5, align 8, !tbaa !3
  %76 = call i32 @lv_obj_send_event(ptr noundef %75, i32 noundef 12, ptr noundef %10)
  store i32 %76, ptr %17, align 4, !tbaa !7
  %77 = load i32, ptr %17, align 4, !tbaa !7
  %78 = icmp ne i32 %77, 1
  br i1 %78, label %79, label %80

79:                                               ; preds = %61
  store i32 1, ptr %14, align 4
  br label %82

80:                                               ; preds = %61
  %81 = call ptr @lv_anim_start(ptr noundef %10)
  store i32 0, ptr %14, align 4
  br label %82

82:                                               ; preds = %80, %79
  call void @llvm.lifetime.end.p0(i64 4, ptr %17) #5
  call void @llvm.lifetime.end.p0(i64 4, ptr %16) #5
  call void @llvm.lifetime.end.p0(i64 4, ptr %15) #5
  %83 = load i32, ptr %14, align 4
  switch i32 %83, label %86 [
    i32 0, label %84
  ]

84:                                               ; preds = %82
  br label %85

85:                                               ; preds = %84, %58
  store i32 0, ptr %14, align 4
  br label %86

86:                                               ; preds = %85, %82, %55
  call void @llvm.lifetime.end.p0(i64 128, ptr %10) #5
  call void @llvm.lifetime.end.p0(i64 8, ptr %9) #5
  %87 = load i32, ptr %14, align 4
  switch i32 %87, label %118 [
    i32 0, label %88
    i32 1, label %117
  ]

88:                                               ; preds = %86
  br label %117

89:                                               ; preds = %25
  %90 = load ptr, ptr %5, align 8, !tbaa !3
  %91 = call zeroext i1 @lv_anim_delete(ptr noundef %90, ptr noundef @scroll_y_anim)
  %92 = load ptr, ptr %5, align 8, !tbaa !3
  %93 = call zeroext i1 @lv_anim_delete(ptr noundef %92, ptr noundef @scroll_x_anim)
  call void @llvm.lifetime.start.p0(i64 4, ptr %18) #5
  %94 = load ptr, ptr %5, align 8, !tbaa !3
  %95 = call i32 @lv_obj_send_event(ptr noundef %94, i32 noundef 12, ptr noundef null)
  store i32 %95, ptr %18, align 4, !tbaa !7
  %96 = load i32, ptr %18, align 4, !tbaa !7
  %97 = icmp ne i32 %96, 1
  br i1 %97, label %98, label %99

98:                                               ; preds = %89
  store i32 1, ptr %14, align 4
  br label %114

99:                                               ; preds = %89
  %100 = load ptr, ptr %5, align 8, !tbaa !3
  %101 = load i32, ptr %6, align 4, !tbaa !7
  %102 = load i32, ptr %7, align 4, !tbaa !7
  %103 = call i32 @lv_obj_scroll_by_raw(ptr noundef %100, i32 noundef %101, i32 noundef %102)
  store i32 %103, ptr %18, align 4, !tbaa !7
  %104 = load i32, ptr %18, align 4, !tbaa !7
  %105 = icmp ne i32 %104, 1
  br i1 %105, label %106, label %107

106:                                              ; preds = %99
  store i32 1, ptr %14, align 4
  br label %114

107:                                              ; preds = %99
  %108 = load ptr, ptr %5, align 8, !tbaa !3
  %109 = call i32 @lv_obj_send_event(ptr noundef %108, i32 noundef 14, ptr noundef null)
  store i32 %109, ptr %18, align 4, !tbaa !7
  %110 = load i32, ptr %18, align 4, !tbaa !7
  %111 = icmp ne i32 %110, 1
  br i1 %111, label %112, label %113

112:                                              ; preds = %107
  store i32 1, ptr %14, align 4
  br label %114

113:                                              ; preds = %107
  store i32 0, ptr %14, align 4
  br label %114

114:                                              ; preds = %113, %112, %106, %98
  call void @llvm.lifetime.end.p0(i64 4, ptr %18) #5
  %115 = load i32, ptr %14, align 4
  switch i32 %115, label %118 [
    i32 0, label %116
    i32 1, label %117
  ]

116:                                              ; preds = %114
  br label %117

117:                                              ; preds = %24, %86, %114, %116, %88
  ret void

118:                                              ; preds = %114, %86
  unreachable
}