; Function Attrs: nounwind uwtable
define void @lv_obj_scroll_by(ptr noundef %0, i32 noundef %1, i32 noundef %2, i32 noundef %3) local_unnamed_addr #0 {
  %5 = alloca %struct._lv_anim_t, align 8
  %6 = or i32 %2, %1
  %or.cond = icmp eq i32 %6, 0
  br i1 %or.cond, label %lv_obj_scroll_by_raw.exit, label %7

7:                                                ; preds = %4
  %8 = icmp eq i32 %3, 1
  br i1 %8, label %9, label %44

9:                                                ; preds = %7
  %10 = tail call ptr @lv_obj_get_display(ptr noundef %0) #5
  call void @llvm.lifetime.start.p0(i64 128, ptr nonnull %5) #5
  call void @lv_anim_init(ptr noundef nonnull %5) #5
  call void @lv_anim_set_var(ptr noundef nonnull %5, ptr noundef %0) #5
  call void @lv_anim_set_deleted_cb(ptr noundef nonnull %5, ptr noundef nonnull @scroll_end_cb) #5
  %.not40 = icmp eq i32 %1, 0
  br i1 %.not40, label %27, label %11

11:                                               ; preds = %9
  %12 = call i32 @lv_display_get_horizontal_resolution(ptr noundef %10) #5
  %13 = ashr i32 %12, 1
  %14 = call i32 @lv_anim_speed_clamped(i32 noundef %13, i32 noundef 200, i32 noundef 400) #5
  call void @lv_anim_set_duration(ptr noundef nonnull %5, i32 noundef %14) #5
  %15 = getelementptr inbounds nuw i8, ptr %0, i64 16
  %16 = load ptr, ptr %15, align 8, !tbaa !3
  %17 = icmp eq ptr %16, null
  br i1 %17, label %lv_obj_get_scroll_x.exit, label %18

18:                                               ; preds = %11
  %19 = getelementptr inbounds nuw i8, ptr %16, i64 48
  %20 = load i32, ptr %19, align 8, !tbaa !11
  %21 = sub nsw i32 0, %20
  br label %lv_obj_get_scroll_x.exit

lv_obj_get_scroll_x.exit:                         ; preds = %11, %18
  %.0.i = phi i32 [ %21, %18 ], [ 0, %11 ]
  %22 = sub nsw i32 0, %.0.i
  %23 = sub nsw i32 %1, %.0.i
  call void @lv_anim_set_values(ptr noundef nonnull %5, i32 noundef %22, i32 noundef %23) #5
  call void @lv_anim_set_exec_cb(ptr noundef nonnull %5, ptr noundef nonnull @scroll_x_anim) #5
  call void @lv_anim_set_path_cb(ptr noundef nonnull %5, ptr noundef nonnull @lv_anim_path_ease_out) #5
  %24 = call i32 @lv_obj_send_event(ptr noundef nonnull %0, i32 noundef 12, ptr noundef nonnull %5) #5
  %.not41 = icmp eq i32 %24, 1
  br i1 %.not41, label %25, label %.critedge

25:                                               ; preds = %lv_obj_get_scroll_x.exit
  %26 = call ptr @lv_anim_start(ptr noundef nonnull %5) #5
  br label %27

27:                                               ; preds = %25, %9
  %.not42 = icmp eq i32 %2, 0
  br i1 %.not42, label %.critedge, label %28

28:                                               ; preds = %27
  %29 = call i32 @lv_display_get_vertical_resolution(ptr noundef %10) #5
  %30 = ashr i32 %29, 1
  %31 = call i32 @lv_anim_speed_clamped(i32 noundef %30, i32 noundef 200, i32 noundef 400) #5
  call void @lv_anim_set_duration(ptr noundef nonnull %5, i32 noundef %31) #5
  %32 = getelementptr inbounds nuw i8, ptr %0, i64 16
  %33 = load ptr, ptr %32, align 8, !tbaa !3
  %34 = icmp eq ptr %33, null
  br i1 %34, label %lv_obj_get_scroll_y.exit, label %35

35:                                               ; preds = %28
  %36 = getelementptr inbounds nuw i8, ptr %33, i64 52
  %37 = load i32, ptr %36, align 4, !tbaa !17
  %38 = sub nsw i32 0, %37
  br label %lv_obj_get_scroll_y.exit

lv_obj_get_scroll_y.exit:                         ; preds = %28, %35
  %.0.i46 = phi i32 [ %38, %35 ], [ 0, %28 ]
  %39 = sub nsw i32 0, %.0.i46
  %40 = sub nsw i32 %2, %.0.i46
  call void @lv_anim_set_values(ptr noundef nonnull %5, i32 noundef %39, i32 noundef %40) #5
  call void @lv_anim_set_exec_cb(ptr noundef nonnull %5, ptr noundef nonnull @scroll_y_anim) #5
  call void @lv_anim_set_path_cb(ptr noundef nonnull %5, ptr noundef nonnull @lv_anim_path_ease_out) #5
  %41 = call i32 @lv_obj_send_event(ptr noundef nonnull %0, i32 noundef 12, ptr noundef nonnull %5) #5
  %.not43 = icmp eq i32 %41, 1
  br i1 %.not43, label %42, label %.critedge

42:                                               ; preds = %lv_obj_get_scroll_y.exit
  %43 = call ptr @lv_anim_start(ptr noundef nonnull %5) #5
  br label %.critedge

.critedge:                                        ; preds = %42, %lv_obj_get_scroll_y.exit, %lv_obj_get_scroll_x.exit, %27
  call void @llvm.lifetime.end.p0(i64 128, ptr nonnull %5) #5
  br label %lv_obj_scroll_by_raw.exit

44:                                               ; preds = %7
  %45 = tail call zeroext i1 @lv_anim_delete(ptr noundef %0, ptr noundef nonnull @scroll_y_anim) #5
  %46 = tail call zeroext i1 @lv_anim_delete(ptr noundef %0, ptr noundef nonnull @scroll_x_anim) #5
  %47 = tail call i32 @lv_obj_send_event(ptr noundef %0, i32 noundef 12, ptr noundef null) #5
  %.not = icmp eq i32 %47, 1
  br i1 %.not, label %48, label %lv_obj_scroll_by_raw.exit

48:                                               ; preds = %44
  tail call void @lv_obj_allocate_spec_attr(ptr noundef %0) #5
  %49 = getelementptr inbounds nuw i8, ptr %0, i64 16
  %50 = load ptr, ptr %49, align 8, !tbaa !3
  %51 = getelementptr inbounds nuw i8, ptr %50, i64 48
  %52 = load i32, ptr %51, align 8, !tbaa !11
  %53 = add nsw i32 %52, %1
  store i32 %53, ptr %51, align 8, !tbaa !11
  %54 = getelementptr inbounds nuw i8, ptr %50, i64 52
  %55 = load i32, ptr %54, align 4, !tbaa !17
  %56 = add nsw i32 %55, %2
  store i32 %56, ptr %54, align 4, !tbaa !17
  tail call void @lv_obj_move_children_by(ptr noundef %0, i32 noundef %1, i32 noundef %2, i1 noundef zeroext true) #5
  %57 = tail call i32 @lv_obj_send_event(ptr noundef %0, i32 noundef 15, ptr noundef null) #5
  %.not.i = icmp eq i32 %57, 1
  br i1 %.not.i, label %58, label %lv_obj_scroll_by_raw.exit

58:                                               ; preds = %48
  tail call void @lv_obj_invalidate(ptr noundef nonnull %0) #5
  %59 = tail call i32 @lv_obj_send_event(ptr noundef nonnull %0, i32 noundef 14, ptr noundef null) #5
  br label %lv_obj_scroll_by_raw.exit

lv_obj_scroll_by_raw.exit:                        ; preds = %48, %44, %58, %.critedge, %4
  ret void
}